target datalayout = "e-m:e-p270:32:32-p271:32:32-p272:64:64-i64:64-i128:128-f80:128-n8:16:32:64-S128"
target triple = "x86_64-pc-linux-gnu"

%"class.boost::unit_test::basic_cstring" = type { ptr, ptr }
%"struct.boost::unit_test::framework::setup_error" = type { %"class.std::runtime_error" }
%"class.std::runtime_error" = type { %"class.std::exception", %"struct.std::__cow_string" }
%"class.std::exception" = type { ptr }
%"struct.std::__cow_string" = type { %union.anon.30 }
%union.anon.30 = type { ptr }

@.str.238 = private unnamed_addr constant [54 x i8] c"parameter break_exec_path is disabled in this release\00", align 1
@_ZN5boost9unit_test13basic_cstringIKcE4nullE = linkonce_odr constant i8 0, comdat, align 1

; Function Attrs: mustprogress nounwind uwtable
define linkonce_odr hidden noundef zeroext i1 @_ZN5boost9unit_test9ut_detail20bcs_char_traits_implIKcE2eqEcc(i8 noundef signext %0, i8 noundef signext %1) #4 comdat align 2 {
  %3 = alloca i8, align 1
  %4 = alloca i8, align 1
  store i8 %0, ptr %3, align 1, !tbaa !7
  store i8 %1, ptr %4, align 1, !tbaa !7
  %5 = load i8, ptr %3, align 1, !tbaa !7
  %6 = sext i8 %5 to i32
  %7 = load i8, ptr %4, align 1, !tbaa !7
  %8 = sext i8 %7 to i32
  %9 = icmp eq i32 %6, %8
  ret i1 %9
}

; Function Attrs: mustprogress nounwind uwtable
define linkonce_odr hidden noundef i64 @_ZN5boost9unit_test9ut_detail20bcs_char_traits_implIKcE6lengthEPS3_(ptr noundef %0) #4 comdat align 2 {
  %2 = alloca ptr, align 8
  %3 = alloca i8, align 1
  %4 = alloca ptr, align 8
  store ptr %0, ptr %2, align 8, !tbaa !3
  call void @llvm.lifetime.start.p0(i64 1, ptr %3) #3
  store i8 0, ptr %3, align 1, !tbaa !7
  call void @llvm.lifetime.start.p0(i64 8, ptr %4) #3
  %5 = load ptr, ptr %2, align 8, !tbaa !3
  store ptr %5, ptr %4, align 8, !tbaa !3
  br label %6

6:                                                ; preds = %11, %1
  %7 = load ptr, ptr %4, align 8, !tbaa !3
  %8 = load i8, ptr %7, align 1, !tbaa !7
  %9 = call noundef zeroext i1 @_ZN5boost9unit_test9ut_detail20bcs_char_traits_implIKcE2eqEcc(i8 noundef signext %8, i8 noundef signext 0)
  %10 = xor i1 %9, true
  br i1 %10, label %11, label %14

11:                                               ; preds = %6
  %12 = load ptr, ptr %4, align 8, !tbaa !3
  %13 = getelementptr inbounds nuw i8, ptr %12, i32 1
  store ptr %13, ptr %4, align 8, !tbaa !3
  br label %6, !llvm.loop !506

14:                                               ; preds = %6
  %15 = load ptr, ptr %4, align 8, !tbaa !3
  %16 = load ptr, ptr %2, align 8, !tbaa !3
  %17 = ptrtoint ptr %15 to i64
  %18 = ptrtoint ptr %16 to i64
  %19 = sub i64 %17, %18
  call void @llvm.lifetime.end.p0(i64 8, ptr %4) #3
  call void @llvm.lifetime.end.p0(i64 1, ptr %3) #3
  ret i64 %19
}

; Function Attrs: inlinehint mustprogress nounwind uwtable
define linkonce_odr hidden noundef ptr @_ZN5boost9unit_test13basic_cstringIKcE8null_strEv() #8 comdat align 2 {
  ret ptr @_ZN5boost9unit_test13basic_cstringIKcE4nullE
}

; Function Attrs: inlinehint mustprogress uwtable
define linkonce_odr hidden void @_ZN5boost9unit_test13basic_cstringIKcEC2EPS2_(ptr noundef nonnull align 8 dereferenceable(16) %0, ptr noundef %1) unnamed_addr #6 comdat align 2 {
  %3 = alloca ptr, align 8
  %4 = alloca ptr, align 8
  store ptr %0, ptr %3, align 8, !tbaa !3
  store ptr %1, ptr %4, align 8, !tbaa !3
  %5 = load ptr, ptr %3, align 8
  %6 = getelementptr inbounds nuw %"class.boost::unit_test::basic_cstring", ptr %5, i32 0, i32 0
  %7 = load ptr, ptr %4, align 8, !tbaa !3
  %8 = icmp ne ptr %7, null
  br i1 %8, label %9, label %11

9:                                                ; preds = %2
  %10 = load ptr, ptr %4, align 8, !tbaa !3
  br label %13

11:                                               ; preds = %2
  %12 = call noundef ptr @_ZN5boost9unit_test13basic_cstringIKcE8null_strEv()
  br label %13

13:                                               ; preds = %11, %9
  %14 = phi ptr [ %10, %9 ], [ %12, %11 ]
  store ptr %14, ptr %6, align 8, !tbaa !12
  %15 = getelementptr inbounds nuw %"class.boost::unit_test::basic_cstring", ptr %5, i32 0, i32 1
  %16 = getelementptr inbounds nuw %"class.boost::unit_test::basic_cstring", ptr %5, i32 0, i32 0
  %17 = load ptr, ptr %16, align 8, !tbaa !12
  %18 = load ptr, ptr %4, align 8, !tbaa !3
  %19 = icmp ne ptr %18, null
  br i1 %19, label %20, label %23

20:                                               ; preds = %13
  %21 = load ptr, ptr %4, align 8, !tbaa !3
  %22 = call noundef i64 @_ZN5boost9unit_test9ut_detail20bcs_char_traits_implIKcE6lengthEPS3_(ptr noundef %21)
  br label %24

23:                                               ; preds = %13
  br label %24

24:                                               ; preds = %23, %20
  %25 = phi i64 [ %22, %20 ], [ 0, %23 ]
  %26 = getelementptr inbounds nuw i8, ptr %17, i64 %25
  store ptr %26, ptr %15, align 8, !tbaa !14
  ret void
}

; Function Attrs: inlinehint mustprogress uwtable
define internal void @"_ZZN5boost9unit_test14runtime_config12_GLOBAL__N_119register_parametersERNS_7runtime16parameters_storeEENK3$_0clENS0_13basic_cstringIKcEE"(ptr noundef nonnull align 1 dereferenceable(1) %0, ptr noundef %1) #6 align 2 personality ptr @__gxx_personality_v0 {
  %3 = alloca ptr, align 8
  %4 = alloca ptr, align 8
  %5 = alloca %"struct.boost::unit_test::framework::setup_error", align 8
  %6 = alloca %"class.boost::unit_test::basic_cstring", align 8
  %7 = alloca ptr, align 8
  %8 = alloca i32, align 4
  store ptr %0, ptr %3, align 8, !tbaa !3
  store ptr %1, ptr %4, align 8, !tbaa !3
  call void @llvm.lifetime.start.p0(i64 16, ptr %5) #3
  call void @_ZN5boost9unit_test13basic_cstringIKcEC2EPS2_(ptr noundef nonnull align 8 dereferenceable(16) %6, ptr noundef @.str.238)
  call void @_ZN5boost9unit_test9framework11setup_errorC2ENS0_13basic_cstringIKcEE(ptr noundef nonnull align 8 dereferenceable(16) %5, ptr noundef %6)
  invoke void @_ZN5boost9unit_test9ut_detail15throw_exceptionINS0_9framework11setup_errorEEEvRKT_(ptr noundef nonnull align 8 dereferenceable(16) %5) #23
          to label %9 unwind label %10

9:                                                ; preds = %2
  unreachable

10:                                               ; preds = %2
  %11 = landingpad { ptr, i32 }
          cleanup
  %12 = extractvalue { ptr, i32 } %11, 0
  store ptr %12, ptr %7, align 8
  %13 = extractvalue { ptr, i32 } %11, 1
  store i32 %13, ptr %8, align 4
  call void @_ZNSt13runtime_errorD2Ev(ptr noundef nonnull align 8 dereferenceable(16) %5) #3
  call void @llvm.lifetime.end.p0(i64 16, ptr %5) #3
  br label %14

14:                                               ; preds = %10
  %15 = load ptr, ptr %7, align 8
  %16 = load i32, ptr %8, align 4
  %17 = insertvalue { ptr, i32 } poison, ptr %15, 0
  %18 = insertvalue { ptr, i32 } %17, i32 %16, 1
  resume { ptr, i32 } %18
}

; Function Attrs: inlinehint mustprogress nounwind uwtable
define linkonce_odr hidden void @_ZN5boost9unit_test13basic_cstringIKcEC2ERKS3_(ptr noundef nonnull align 8 dereferenceable(16) %0, ptr noundef nonnull align 8 dereferenceable(16) %1) unnamed_addr #8 comdat align 2 {
  %3 = alloca ptr, align 8
  %4 = alloca ptr, align 8
  store ptr %0, ptr %3, align 8, !tbaa !3
  store ptr %1, ptr %4, align 8, !tbaa !3
  %5 = load ptr, ptr %3, align 8
  %6 = getelementptr inbounds nuw %"class.boost::unit_test::basic_cstring", ptr %5, i32 0, i32 0
  %7 = load ptr, ptr %4, align 8, !tbaa !3
  %8 = getelementptr inbounds nuw %"class.boost::unit_test::basic_cstring", ptr %7, i32 0, i32 0
  %9 = load ptr, ptr %8, align 8, !tbaa !12
  store ptr %9, ptr %6, align 8, !tbaa !12
  %10 = getelementptr inbounds nuw %"class.boost::unit_test::basic_cstring", ptr %5, i32 0, i32 1
  %11 = load ptr, ptr %4, align 8, !tbaa !3
  %12 = getelementptr inbounds nuw %"class.boost::unit_test::basic_cstring", ptr %11, i32 0, i32 1
  %13 = load ptr, ptr %12, align 8, !tbaa !14
  store ptr %13, ptr %10, align 8, !tbaa !14
  ret void
}

; Function Attrs: mustprogress uwtable
define internal void @"_ZN5boost6detail8function25void_function_obj_invokerIZNS_9unit_test14runtime_config12_GLOBAL__N_119register_parametersERNS_7runtime16parameters_storeEE3$_0vJNS3_13basic_cstringIKcEEEE6invokeERNS1_15function_bufferESC_"(ptr noundef nonnull align 8 dereferenceable(24) %0, ptr noundef %1) #5 align 2 {
  %3 = alloca ptr, align 8
  %4 = alloca ptr, align 8
  %5 = alloca ptr, align 8
  %6 = alloca %"class.boost::unit_test::basic_cstring", align 8
  store ptr %0, ptr %3, align 8, !tbaa !3
  store ptr %1, ptr %4, align 8, !tbaa !3
  call void @llvm.lifetime.start.p0(i64 8, ptr %5) #3
  %7 = load ptr, ptr %3, align 8, !tbaa !3
  %8 = getelementptr inbounds [24 x i8], ptr %7, i64 0, i64 0
  store ptr %8, ptr %5, align 8, !tbaa !3
  %9 = load ptr, ptr %5, align 8, !tbaa !3
  call void @_ZN5boost9unit_test13basic_cstringIKcEC2ERKS3_(ptr noundef nonnull align 8 dereferenceable(16) %6, ptr noundef nonnull align 8 dereferenceable(16) %1)
  call void @"_ZZN5boost9unit_test14runtime_config12_GLOBAL__N_119register_parametersERNS_7runtime16parameters_storeEENK3$_0clENS0_13basic_cstringIKcEE"(ptr noundef nonnull align 1 dereferenceable(1) %9, ptr noundef %6)
  call void @llvm.lifetime.end.p0(i64 8, ptr %5) #3
  ret void
}