; Function Attrs: mustprogress noreturn uwtable
define internal void @"_ZN5boost6detail8function25void_function_obj_invokerIZNS_9unit_test14runtime_config12_GLOBAL__N_119register_parametersERNS_7runtime16parameters_storeEE3$_0vJNS3_13basic_cstringIKcEEEE6invokeERNS1_15function_bufferESC_"(ptr nocapture nonnull readnone align 8 %0, ptr nocapture readonly %1) #24 align 2 personality ptr @__gxx_personality_v0 {
  %3 = alloca %"struct.boost::unit_test::framework::setup_error", align 8
  %4 = alloca %"class.boost::unit_test::basic_cstring", align 8
  call void @llvm.lifetime.start.p0(i64 16, ptr nonnull %4)
  call void @llvm.lifetime.start.p0(i64 16, ptr nonnull %3) #31
  store ptr @.str.238, ptr %4, align 8, !tbaa !14
  %5 = getelementptr inbounds nuw i8, ptr %4, i64 8
  store ptr getelementptr inbounds nuw (i8, ptr @.str.238, i64 53), ptr %5, align 8, !tbaa !16
  call void @_ZN5boost9unit_test9framework11setup_errorC2ENS0_13basic_cstringIKcEE(ptr noundef nonnull align 8 dereferenceable(16) %3, ptr noundef nonnull %4)
  invoke void @_ZN5boost9unit_test9ut_detail15throw_exceptionINS0_9framework11setup_errorEEEvRKT_(ptr noundef nonnull align 8 dereferenceable(16) %3) #33
          to label %6 unwind label %7

6:                                                ; preds = %2
  unreachable

7:                                                ; preds = %2
  %8 = landingpad { ptr, i32 }
          cleanup
  call void @_ZNSt13runtime_errorD2Ev(ptr noundef nonnull align 8 dereferenceable(16) %3) #31
  call void @llvm.lifetime.end.p0(i64 16, ptr nonnull %3) #31
  resume { ptr, i32 } %8
}